; ModuleID = '53/521.c'
source_filename = "53/521.c"
target datalayout = "e-m:e-p270:32:32-p271:32:32-p272:64:64-i64:64-f80:128-n8:16:32:64-S128"
target triple = "x86_64-pc-linux-gnu"

@.str = private unnamed_addr constant [3 x i8] c"%d\00", align 1
@.str.1 = private unnamed_addr constant [4 x i8] c"%d,\00", align 1

; Function Attrs: noinline nounwind uwtable
define dso_local void @main() #0 {
  %1 = alloca i32, align 4
  %2 = alloca i32, align 4
  %3 = alloca [300 x i32], align 16
  %4 = alloca i32, align 4
  %5 = alloca i32, align 4
  %6 = alloca [100 x i32], align 16
  %7 = alloca i32, align 4
  store i32 0, i32* %2, align 4
  store i32 0, i32* %5, align 4
  store i32 2, i32* %7, align 4
  %8 = call i32 (i8*, ...) @__isoc99_scanf(i8* getelementptr inbounds ([3 x i8], [3 x i8]* @.str, i64 0, i64 0), i32* %1)
  br label %9

9:                                                ; preds = %13, %0
  %10 = load i32, i32* %2, align 4
  %11 = load i32, i32* %1, align 4
  %12 = icmp slt i32 %10, %11
  br i1 %12, label %13, label %20

13:                                               ; preds = %9
  %14 = load i32, i32* %2, align 4
  %15 = sext i32 %14 to i64
  %16 = getelementptr inbounds [300 x i32], [300 x i32]* %3, i64 0, i64 %15
  %17 = call i32 (i8*, ...) @__isoc99_scanf(i8* getelementptr inbounds ([3 x i8], [3 x i8]* @.str, i64 0, i64 0), i32* %16)
  %18 = load i32, i32* %2, align 4
  %19 = add nsw i32 %18, 1
  store i32 %19, i32* %2, align 4
  br label %9

20:                                               ; preds = %9
  %21 = getelementptr inbounds [300 x i32], [300 x i32]* %3, i64 0, i64 0
  %22 = load i32, i32* %21, align 16
  %23 = getelementptr inbounds [100 x i32], [100 x i32]* %6, i64 0, i64 1
  store i32 %22, i32* %23, align 4
  store i32 1, i32* %2, align 4
  br label %24

24:                                               ; preds = %68, %20
  %25 = load i32, i32* %2, align 4
  %26 = load i32, i32* %1, align 4
  %27 = icmp slt i32 %25, %26
  br i1 %27, label %28, label %71

28:                                               ; preds = %24
  store i32 0, i32* %5, align 4
  store i32 0, i32* %4, align 4
  br label %29

29:                                               ; preds = %49, %28
  %30 = load i32, i32* %4, align 4
  %31 = load i32, i32* %2, align 4
  %32 = icmp slt i32 %30, %31
  br i1 %32, label %33, label %52

33:                                               ; preds = %29
  %34 = load i32, i32* %2, align 4
  %35 = sext i32 %34 to i64
  %36 = getelementptr inbounds [300 x i32], [300 x i32]* %3, i64 0, i64 %35
  %37 = load i32, i32* %36, align 4
  %38 = load i32, i32* %4, align 4
  %39 = sext i32 %38 to i64
  %40 = getelementptr inbounds [300 x i32], [300 x i32]* %3, i64 0, i64 %39
  %41 = load i32, i32* %40, align 4
  %42 = icmp eq i32 %37, %41
  br i1 %42, label %43, label %45

43:                                               ; preds = %33
  %44 = load i32, i32* %5, align 4
  store i32 %44, i32* %5, align 4
  br label %48

45:                                               ; preds = %33
  %46 = load i32, i32* %5, align 4
  %47 = add nsw i32 %46, 1
  store i32 %47, i32* %5, align 4
  br label %48

48:                                               ; preds = %45, %43
  br label %49

49:                                               ; preds = %48
  %50 = load i32, i32* %4, align 4
  %51 = add nsw i32 %50, 1
  store i32 %51, i32* %4, align 4
  br label %29

52:                                               ; preds = %29
  %53 = load i32, i32* %5, align 4
  %54 = load i32, i32* %2, align 4
  %55 = icmp ne i32 %53, %54
  br i1 %55, label %56, label %57

56:                                               ; preds = %52
  store i32 0, i32* %5, align 4
  br label %67

57:                                               ; preds = %52
  %58 = load i32, i32* %2, align 4
  %59 = sext i32 %58 to i64
  %60 = getelementptr inbounds [300 x i32], [300 x i32]* %3, i64 0, i64 %59
  %61 = load i32, i32* %60, align 4
  %62 = load i32, i32* %7, align 4
  %63 = sext i32 %62 to i64
  %64 = getelementptr inbounds [100 x i32], [100 x i32]* %6, i64 0, i64 %63
  store i32 %61, i32* %64, align 4
  %65 = load i32, i32* %7, align 4
  %66 = add nsw i32 %65, 1
  store i32 %66, i32* %7, align 4
  br label %67

67:                                               ; preds = %57, %56
  br label %68

68:                                               ; preds = %67
  %69 = load i32, i32* %2, align 4
  %70 = add nsw i32 %69, 1
  store i32 %70, i32* %2, align 4
  br label %24

71:                                               ; preds = %24
  store i32 1, i32* %2, align 4
  br label %72

72:                                               ; preds = %83, %71
  %73 = load i32, i32* %2, align 4
  %74 = load i32, i32* %7, align 4
  %75 = sub nsw i32 %74, 1
  %76 = icmp slt i32 %73, %75
  br i1 %76, label %77, label %86

77:                                               ; preds = %72
  %78 = load i32, i32* %2, align 4
  %79 = sext i32 %78 to i64
  %80 = getelementptr inbounds [100 x i32], [100 x i32]* %6, i64 0, i64 %79
  %81 = load i32, i32* %80, align 4
  %82 = call i32 (i8*, ...) @printf(i8* getelementptr inbounds ([4 x i8], [4 x i8]* @.str.1, i64 0, i64 0), i32 %81)
  br label %83

83:                                               ; preds = %77
  %84 = load i32, i32* %2, align 4
  %85 = add nsw i32 %84, 1
  store i32 %85, i32* %2, align 4
  br label %72

86:                                               ; preds = %72
  %87 = load i32, i32* %7, align 4
  %88 = sub nsw i32 %87, 1
  %89 = sext i32 %88 to i64
  %90 = getelementptr inbounds [100 x i32], [100 x i32]* %6, i64 0, i64 %89
  %91 = load i32, i32* %90, align 4
  %92 = call i32 (i8*, ...) @printf(i8* getelementptr inbounds ([3 x i8], [3 x i8]* @.str, i64 0, i64 0), i32 %91)
  ret void
}

declare dso_local i32 @__isoc99_scanf(i8*, ...) #1

declare dso_local i32 @printf(i8*, ...) #1


!llvm.module.flags = !{!0}
!llvm.ident = !{!1}

!0 = !{i32 1, !"wchar_size", i32 4}
!1 = !{!"clang version 10.0.0-4ubuntu1 "}
